Certificate:
    Data:
        Version: 1 (0x0)
        Serial Number: 105 (0x69)
    Signature Algorithm: md5WithRSAEncryption
        Issuer: O=NOVA ROOT, L=Mountain View, ST=California, C=US
        Validity
            Not Before: Jan 29 21:46:36 2014 GMT
            Not After : Jan 29 21:46:36 2015 GMT
        Subject: C=US, ST=California, O=OpenStack, OU=NovaDev, CN=3008a142e9524f72-4620ca9f5340448f-2014-01-29T21:46:36Z
        Subject Public Key Info:
            Public Key Algorithm: rsaEncryption
                Public-Key: (1024 bit)
                Modulus:
                    00:b2:38:c4:e9:6e:ad:1c:52:eb:a6:86:0c:9b:c6:
                    42:1f:da:d6:a0:66:52:72:64:4d:9f:c7:16:96:5c:
                    92:7f:c4:02:82:4c:a0:87:c8:be:5d:2a:53:d3:e6:
                    42:71:be:bf:a1:ce:6b:dc:dd:5f:20:00:c2:5a:9b:
                    55:6d:ca:43:d1:f3:00:18:34:a8:cb:85:64:a6:d8:
                    ad:63:66:38:d0:ae:2c:b8:e6:ca:15:12:3b:25:9b:
                    2d:2f:97:ed:af:41:ee:a3:8c:ae:1a:53:86:be:1a:
                    71:8b:02:bc:33:1c:fe:50:87:38:99:66:4d:59:66:
                    f1:e7:e0:ea:e9:d5:16:78:cd
                Exponent: 65537 (0x10001)
    Signature Algorithm: md5WithRSAEncryption
         70:56:c6:df:77:a2:c1:82:df:17:e2:c9:58:e4:82:57:7c:eb:
         f4:80:a3:3a:ce:3c:66:31:73:e8:d5:ce:76:2d:bc:29:0b:af:
         1c:c7:f4:40:86:07:d7:29:bc:30:7b:06:b1:f3:22:d1:f0:fa:
         84:aa:8e:3f:b2:f8:63:bd:c6:0b:ca:f4:7b:bb:35:ec:64:06:
         39:fa:16:e6:7e:a3:6c:00:c8:d7:ce:fa:74:69:66:36:d7:f5:
         70:5a:da:a1:3d:d8:95:b9:d9:16:de:44:5e:66:b5:10:3c:92:
         f9:f2:00:78:82:7b:48:fc:8d:69:ce:20:87:1c:de:4b:c2:89:
         2c:b7
-----BEGIN CERTIFICATE-----
MIICRzCCAbACAWkwDQYJKoZIhvcNAQEEBQAwTjESMBAGA1UEChMJTk9WQSBST09U
MRYwFAYDVQQHEw1Nb3VudGFpbiBWaWV3MRMwEQYDVQQIEwpDYWxpZm9ybmlhMQsw
CQYDVQQGEwJVUzAeFw0xNDAxMjkyMTQ2MzZaFw0xNTAxMjkyMTQ2MzZaMIGJMQsw
CQYDVQQGEwJVUzETMBEGA1UECAwKQ2FsaWZvcm5pYTESMBAGA1UECgwJT3BlblN0
YWNrMRAwDgYDVQQLDAdOb3ZhRGV2MT8wPQYDVQQDDDYzMDA4YTE0MmU5NTI0Zjcy
LTQ2MjBjYTlmNTM0MDQ0OGYtMjAxNC0wMS0yOVQyMTo0NjozNlowgZ8wDQYJKoZI
hvcNAQEBBQADgY0AMIGJAoGBALI4xOlurRxS66aGDJvGQh/a1qBmUnJkTZ/HFpZc
kn/EAoJMoIfIvl0qU9PmQnG+v6HOa9zdXyAAwlqbVW3KQ9HzABg0qMuFZKbYrWNm
ONCuLLjmyhUSOyWbLS+X7a9B7qOMrhpThr4acYsCvDMc/lCHOJlmTVlm8efg6unV
FnjNAgMBAAEwDQYJKoZIhvcNAQEEBQADgYEAcFbG33eiwYLfF+LJWOSCV3zr9ICj
Os48ZjFz6NXOdi28KQuvHMf0QIYH1ym8MHsGsfMi0fD6hKqOP7L4Y73GC8r0e7s1
7GQGOfoW5n6jbADI1876dGlmNtf1cFraoT3YlbnZFt5EXma1EDyS+fIAeIJ7SPyN
ac4ghxzeS8KJLLc=
-----END CERTIFICATE-----
